target datalayout = "e-m:e-p270:32:32-p271:32:32-p272:64:64-i64:64-i128:128-f80:128-n8:16:32:64-S128"
target triple = "x86_64-pc-linux-gnu"

%"class.g2o::OptimizationAlgorithmDogleg" = type { %"class.g2o::OptimizationAlgorithmWithHessian", ptr, ptr, ptr, ptr, %"class.Eigen::Matrix", %"class.Eigen::Matrix", %"class.Eigen::Matrix", double, double, i32, i8, i32, %"class.std::unique_ptr" }
%"class.g2o::OptimizationAlgorithmWithHessian" = type { %"class.g2o::OptimizationAlgorithm", ptr, ptr }
%"class.g2o::OptimizationAlgorithm" = type { ptr, ptr, %"class.g2o::PropertyMap" }
%"class.g2o::PropertyMap" = type { %"class.std::map" }
%"class.std::map" = type { %"class.std::_Rb_tree" }
%"class.std::_Rb_tree" = type { %"struct.std::_Rb_tree<std::__cxx11::basic_string<char>, std::pair<const std::__cxx11::basic_string<char>, g2o::BaseProperty *>, std::_Select1st<std::pair<const std::__cxx11::basic_string<char>, g2o::BaseProperty *>>, std::less<std::__cxx11::basic_string<char>>>::_Rb_tree_impl" }
%"struct.std::_Rb_tree<std::__cxx11::basic_string<char>, std::pair<const std::__cxx11::basic_string<char>, g2o::BaseProperty *>, std::_Select1st<std::pair<const std::__cxx11::basic_string<char>, g2o::BaseProperty *>>, std::less<std::__cxx11::basic_string<char>>>::_Rb_tree_impl" = type { [8 x i8], %"struct.std::_Rb_tree_header" }
%"struct.std::_Rb_tree_header" = type { %"struct.std::_Rb_tree_node_base", i64 }
%"struct.std::_Rb_tree_node_base" = type { i32, ptr, ptr, ptr }
%"class.Eigen::Matrix" = type { %"class.Eigen::PlainObjectBase" }
%"class.Eigen::PlainObjectBase" = type { %"class.Eigen::DenseStorage" }
%"class.Eigen::DenseStorage" = type { ptr, i64 }
%"class.std::unique_ptr" = type { %"struct.std::__uniq_ptr_data" }
%"struct.std::__uniq_ptr_data" = type { %"class.std::__uniq_ptr_impl" }
%"class.std::__uniq_ptr_impl" = type { %"class.std::tuple" }
%"class.std::tuple" = type { %"struct.std::_Tuple_impl" }
%"struct.std::_Tuple_impl" = type { %"struct.std::_Head_base.2" }
%"struct.std::_Head_base.2" = type { ptr }
%"class.std::locale" = type { ptr }
%"class.std::ios_base" = type { ptr, i64, i64, i32, i32, i32, ptr, %"struct.std::ios_base::_Words", [8 x %"struct.std::ios_base::_Words"], i32, ptr, %"class.std::locale" }
%"struct.std::ios_base::_Words" = type { ptr, i64 }

@.str.7 = private unnamed_addr constant [10 x i8] c"\09 Delta= \00", align 1
@.str.8 = private unnamed_addr constant [9 x i8] c"\09 step= \00", align 1
@.str.9 = private unnamed_addr constant [10 x i8] c"\09 tries= \00", align 1
@.str.10 = private unnamed_addr constant [11 x i8] c"\09 lambda= \00", align 1
@.str.11 = private unnamed_addr constant [8 x i8] c"Descent\00", align 1
@.str.12 = private unnamed_addr constant [3 x i8] c"GN\00", align 1
@.str.13 = private unnamed_addr constant [7 x i8] c"Dogleg\00", align 1
@.str.14 = private unnamed_addr constant [10 x i8] c"Undefined\00", align 1

; Function Attrs: inlinehint mustprogress nounwind uwtable
define linkonce_odr noundef i32 @_ZStorSt12_Ios_IostateS_(i32 noundef %0, i32 noundef %1) #8 comdat {
  %3 = alloca i32, align 4
  %4 = alloca i32, align 4
  store i32 %0, ptr %3, align 4, !tbaa !265
  store i32 %1, ptr %4, align 4, !tbaa !265
  %5 = load i32, ptr %3, align 4, !tbaa !265
  %6 = load i32, ptr %4, align 4, !tbaa !265
  %7 = or i32 %5, %6
  ret i32 %7
}

; Function Attrs: mustprogress nounwind uwtable
define available_externally noundef i32 @_ZNKSt9basic_iosIcSt11char_traitsIcEE7rdstateEv(ptr noundef nonnull align 8 dereferenceable(264) %0) #1 align 2 {
  %2 = alloca ptr, align 8
  store ptr %0, ptr %2, align 8, !tbaa !213
  %3 = load ptr, ptr %2, align 8
  %4 = getelementptr inbounds nuw %"class.std::ios_base", ptr %3, i32 0, i32 5
  %5 = load i32, ptr %4, align 8, !tbaa !266
  ret i32 %5
}

; Function Attrs: mustprogress nounwind uwtable
define linkonce_odr noundef i64 @_ZNSt11char_traitsIcE6lengthEPKc(ptr noundef %0) #1 comdat align 2 {
  %2 = alloca ptr, align 8
  store ptr %0, ptr %2, align 8, !tbaa !80
  %3 = load ptr, ptr %2, align 8, !tbaa !80
  %4 = call i64 @strlen(ptr noundef %3) #6
  ret i64 %4
}

; Function Attrs: mustprogress uwtable
define available_externally void @_ZNSt9basic_iosIcSt11char_traitsIcEE8setstateESt12_Ios_Iostate(ptr noundef nonnull align 8 dereferenceable(264) %0, i32 noundef %1) #3 align 2 {
  %3 = alloca ptr, align 8
  %4 = alloca i32, align 4
  store ptr %0, ptr %3, align 8, !tbaa !213
  store i32 %1, ptr %4, align 4, !tbaa !265
  %5 = load ptr, ptr %3, align 8
  %6 = call noundef i32 @_ZNKSt9basic_iosIcSt11char_traitsIcEE7rdstateEv(ptr noundef nonnull align 8 dereferenceable(264) %5)
  %7 = load i32, ptr %4, align 4, !tbaa !265
  %8 = call noundef i32 @_ZStorSt12_Ios_IostateS_(i32 noundef %6, i32 noundef %7)
  call void @_ZNSt9basic_iosIcSt11char_traitsIcEE5clearESt12_Ios_Iostate(ptr noundef nonnull align 8 dereferenceable(264) %5, i32 noundef %8)
  ret void
}

; Function Attrs: mustprogress nounwind uwtable
define noundef ptr @_ZN3g2o27OptimizationAlgorithmDogleg12stepType2StrEi(i32 noundef %0) #1 align 2 {
  %2 = alloca ptr, align 8
  %3 = alloca i32, align 4
  store i32 %0, ptr %3, align 4, !tbaa !55
  %4 = load i32, ptr %3, align 4, !tbaa !55
  switch i32 %4, label %8 [
    i32 1, label %5
    i32 2, label %6
    i32 3, label %7
  ]

5:                                                ; preds = %1
  store ptr @.str.11, ptr %2, align 8
  br label %9

6:                                                ; preds = %1
  store ptr @.str.12, ptr %2, align 8
  br label %9

7:                                                ; preds = %1
  store ptr @.str.13, ptr %2, align 8
  br label %9

8:                                                ; preds = %1
  store ptr @.str.14, ptr %2, align 8
  br label %9

9:                                                ; preds = %8, %7, %6, %5
  %10 = load ptr, ptr %2, align 8
  ret ptr %10
}

; Function Attrs: mustprogress uwtable
define available_externally noundef nonnull align 8 dereferenceable(8) ptr @_ZNSolsEd(ptr noundef nonnull align 8 dereferenceable(8) %0, double noundef %1) #3 align 2 {
  %3 = alloca ptr, align 8
  %4 = alloca double, align 8
  store ptr %0, ptr %3, align 8, !tbaa !134
  store double %1, ptr %4, align 8, !tbaa !20
  %5 = load ptr, ptr %3, align 8
  %6 = load double, ptr %4, align 8, !tbaa !20
  %7 = call noundef nonnull align 8 dereferenceable(8) ptr @_ZNSo9_M_insertIdEERSoT_(ptr noundef nonnull align 8 dereferenceable(8) %5, double noundef %6)
  ret ptr %7
}

; Function Attrs: inlinehint mustprogress uwtable
define available_externally noundef nonnull align 8 dereferenceable(8) ptr @_ZStlsISt11char_traitsIcEERSt13basic_ostreamIcT_ES5_PKc(ptr noundef nonnull align 8 dereferenceable(8) %0, ptr noundef %1) #7 {
  %3 = alloca ptr, align 8
  %4 = alloca ptr, align 8
  store ptr %0, ptr %3, align 8, !tbaa !134
  store ptr %1, ptr %4, align 8, !tbaa !80
  %5 = load ptr, ptr %4, align 8, !tbaa !80
  %6 = icmp ne ptr %5, null
  br i1 %6, label %13, label %7

7:                                                ; preds = %2
  %8 = load ptr, ptr %3, align 8, !tbaa !134
  %9 = load ptr, ptr %8, align 8, !tbaa !18
  %10 = getelementptr i8, ptr %9, i64 -24
  %11 = load i64, ptr %10, align 8
  %12 = getelementptr inbounds i8, ptr %8, i64 %11
  call void @_ZNSt9basic_iosIcSt11char_traitsIcEE8setstateESt12_Ios_Iostate(ptr noundef nonnull align 8 dereferenceable(264) %12, i32 noundef 1)
  br label %19

13:                                               ; preds = %2
  %14 = load ptr, ptr %3, align 8, !tbaa !134
  %15 = load ptr, ptr %4, align 8, !tbaa !80
  %16 = load ptr, ptr %4, align 8, !tbaa !80
  %17 = call noundef i64 @_ZNSt11char_traitsIcE6lengthEPKc(ptr noundef %16)
  %18 = call noundef nonnull align 8 dereferenceable(8) ptr @_ZSt16__ostream_insertIcSt11char_traitsIcEERSt13basic_ostreamIT_T0_ES6_PKS3_l(ptr noundef nonnull align 8 dereferenceable(8) %14, ptr noundef %15, i64 noundef %17)
  br label %19

19:                                               ; preds = %13, %7
  %20 = load ptr, ptr %3, align 8, !tbaa !134
  ret ptr %20
}

; Function Attrs: mustprogress uwtable
define void @_ZNK3g2o27OptimizationAlgorithmDogleg12printVerboseERSo(ptr noundef nonnull align 8 dereferenceable(200) %0, ptr noundef nonnull align 8 dereferenceable(8) %1) unnamed_addr #3 align 2 {
  %3 = alloca ptr, align 8
  %4 = alloca ptr, align 8
  store ptr %0, ptr %3, align 8, !tbaa !14
  store ptr %1, ptr %4, align 8, !tbaa !134
  %5 = load ptr, ptr %3, align 8
  %6 = load ptr, ptr %4, align 8, !tbaa !134
  %7 = call noundef nonnull align 8 dereferenceable(8) ptr @_ZStlsISt11char_traitsIcEERSt13basic_ostreamIcT_ES5_PKc(ptr noundef nonnull align 8 dereferenceable(8) %6, ptr noundef @.str.7)
  %8 = getelementptr inbounds nuw %"class.g2o::OptimizationAlgorithmDogleg", ptr %5, i32 0, i32 9
  %9 = load double, ptr %8, align 8, !tbaa !59
  %10 = call noundef nonnull align 8 dereferenceable(8) ptr @_ZNSolsEd(ptr noundef nonnull align 8 dereferenceable(8) %7, double noundef %9)
  %11 = call noundef nonnull align 8 dereferenceable(8) ptr @_ZStlsISt11char_traitsIcEERSt13basic_ostreamIcT_ES5_PKc(ptr noundef nonnull align 8 dereferenceable(8) %10, ptr noundef @.str.8)
  %12 = getelementptr inbounds nuw %"class.g2o::OptimizationAlgorithmDogleg", ptr %5, i32 0, i32 10
  %13 = load i32, ptr %12, align 8, !tbaa !60
  %14 = call noundef ptr @_ZN3g2o27OptimizationAlgorithmDogleg12stepType2StrEi(i32 noundef %13)
  %15 = call noundef nonnull align 8 dereferenceable(8) ptr @_ZStlsISt11char_traitsIcEERSt13basic_ostreamIcT_ES5_PKc(ptr noundef nonnull align 8 dereferenceable(8) %11, ptr noundef %14)
  %16 = call noundef nonnull align 8 dereferenceable(8) ptr @_ZStlsISt11char_traitsIcEERSt13basic_ostreamIcT_ES5_PKc(ptr noundef nonnull align 8 dereferenceable(8) %15, ptr noundef @.str.9)
  %17 = getelementptr inbounds nuw %"class.g2o::OptimizationAlgorithmDogleg", ptr %5, i32 0, i32 12
  %18 = load i32, ptr %17, align 8, !tbaa !62
  %19 = call noundef nonnull align 8 dereferenceable(8) ptr @_ZNSolsEi(ptr noundef nonnull align 8 dereferenceable(8) %16, i32 noundef %18)
  %20 = getelementptr inbounds nuw %"class.g2o::OptimizationAlgorithmDogleg", ptr %5, i32 0, i32 11
  %21 = load i8, ptr %20, align 4, !tbaa !61, !range !91, !noundef !92
  %22 = trunc i8 %21 to i1
  br i1 %22, label %29, label %23

23:                                               ; preds = %2
  %24 = load ptr, ptr %4, align 8, !tbaa !134
  %25 = call noundef nonnull align 8 dereferenceable(8) ptr @_ZStlsISt11char_traitsIcEERSt13basic_ostreamIcT_ES5_PKc(ptr noundef nonnull align 8 dereferenceable(8) %24, ptr noundef @.str.10)
  %26 = getelementptr inbounds nuw %"class.g2o::OptimizationAlgorithmDogleg", ptr %5, i32 0, i32 8
  %27 = load double, ptr %26, align 8, !tbaa !63
  %28 = call noundef nonnull align 8 dereferenceable(8) ptr @_ZNSolsEd(ptr noundef nonnull align 8 dereferenceable(8) %25, double noundef %27)
  br label %29

29:                                               ; preds = %23, %2
  ret void
}