; Function Attrs: mustprogress uwtable
define void @_ZNK3g2o27OptimizationAlgorithmDogleg12printVerboseERSo(ptr noundef nonnull readonly align 8 captures(none) dereferenceable(200) %0, ptr noundef nonnull align 8 dereferenceable(8) %1) unnamed_addr #4 align 2 {
  %3 = tail call noundef nonnull align 8 dereferenceable(8) ptr @_ZSt16__ostream_insertIcSt11char_traitsIcEERSt13basic_ostreamIT_T0_ES6_PKS3_l(ptr noundef nonnull align 8 dereferenceable(8) %1, ptr noundef nonnull @.str.7, i64 noundef 9)
  %4 = getelementptr inbounds nuw i8, ptr %0, i64 168
  %5 = load double, ptr %4, align 8, !tbaa !56
  %6 = tail call noundef nonnull align 8 dereferenceable(8) ptr @_ZNSo9_M_insertIdEERSoT_(ptr noundef nonnull align 8 dereferenceable(8) %1, double noundef %5)
  %7 = tail call noundef nonnull align 8 dereferenceable(8) ptr @_ZSt16__ostream_insertIcSt11char_traitsIcEERSt13basic_ostreamIT_T0_ES6_PKS3_l(ptr noundef nonnull align 8 dereferenceable(8) %6, ptr noundef nonnull @.str.8, i64 noundef 8)
  %8 = getelementptr inbounds nuw i8, ptr %0, i64 176
  %9 = load i32, ptr %8, align 8, !tbaa !57
  %switch.tableidx = add i32 %9, -1
  %10 = icmp ult i32 %switch.tableidx, 3
  br i1 %10, label %switch.lookup, label %_ZN3g2o27OptimizationAlgorithmDogleg12stepType2StrEi.exit

switch.lookup:                                    ; preds = %2
  %11 = zext nneg i32 %switch.tableidx to i64
  %switch.gep = getelementptr inbounds nuw [3 x ptr], ptr @switch.table._ZN3g2o27OptimizationAlgorithmDogleg12stepType2StrEi, i64 0, i64 %11
  %switch.load = load ptr, ptr %switch.gep, align 8
  br label %_ZN3g2o27OptimizationAlgorithmDogleg12stepType2StrEi.exit

_ZN3g2o27OptimizationAlgorithmDogleg12stepType2StrEi.exit: ; preds = %2, %switch.lookup
  %.0.i = phi ptr [ %switch.load, %switch.lookup ], [ @.str.14, %2 ]
  %12 = tail call noundef i64 @strlen(ptr noundef nonnull dereferenceable(1) %.0.i) #25
  %13 = tail call noundef nonnull align 8 dereferenceable(8) ptr @_ZSt16__ostream_insertIcSt11char_traitsIcEERSt13basic_ostreamIT_T0_ES6_PKS3_l(ptr noundef nonnull align 8 dereferenceable(8) %6, ptr noundef nonnull %.0.i, i64 noundef %12)
  %14 = tail call noundef nonnull align 8 dereferenceable(8) ptr @_ZSt16__ostream_insertIcSt11char_traitsIcEERSt13basic_ostreamIT_T0_ES6_PKS3_l(ptr noundef nonnull align 8 dereferenceable(8) %6, ptr noundef nonnull @.str.9, i64 noundef 9)
  %15 = getelementptr inbounds nuw i8, ptr %0, i64 184
  %16 = load i32, ptr %15, align 8, !tbaa !59
  %17 = tail call noundef nonnull align 8 dereferenceable(8) ptr @_ZNSolsEi(ptr noundef nonnull align 8 dereferenceable(8) %6, i32 noundef %16)
  %18 = getelementptr inbounds nuw i8, ptr %0, i64 180
  %19 = load i8, ptr %18, align 4, !tbaa !58, !range !94, !noundef !95
  %20 = trunc nuw i8 %19 to i1
  br i1 %20, label %26, label %21

21:                                               ; preds = %_ZN3g2o27OptimizationAlgorithmDogleg12stepType2StrEi.exit
  %22 = tail call noundef nonnull align 8 dereferenceable(8) ptr @_ZSt16__ostream_insertIcSt11char_traitsIcEERSt13basic_ostreamIT_T0_ES6_PKS3_l(ptr noundef nonnull align 8 dereferenceable(8) %1, ptr noundef nonnull @.str.10, i64 noundef 10)
  %23 = getelementptr inbounds nuw i8, ptr %0, i64 160
  %24 = load double, ptr %23, align 8, !tbaa !60
  %25 = tail call noundef nonnull align 8 dereferenceable(8) ptr @_ZNSo9_M_insertIdEERSoT_(ptr noundef nonnull align 8 dereferenceable(8) %1, double noundef %24)
  br label %26

26:                                               ; preds = %21, %_ZN3g2o27OptimizationAlgorithmDogleg12stepType2StrEi.exit
  ret void
}